target datalayout = "e-m:e-p270:32:32-p271:32:32-p272:64:64-i64:64-i128:128-f80:128-n8:16:32:64-S128"
target triple = "x86_64-pc-linux-gnu"

%struct.imap_store = type { ptr, ptr, i32, ptr, ptr }
%struct.imap = type { i32, i32, i32, i32, i32, i32, ptr, ptr, %struct.imap_buffer }
%struct.imap_buffer = type { %struct.imap_socket, i32, i32, [1024 x i8] }
%struct.imap_socket = type { [2 x i32], ptr }

@.str.132 = private unnamed_addr constant [7 x i8] c"LOGOUT\00", align 1

; Function Attrs: nounwind uwtable
define internal void @socket_shutdown(ptr noundef %0) #0 {
  %2 = alloca ptr, align 8
  store ptr %0, ptr %2, align 8, !tbaa !93
  %3 = load ptr, ptr %2, align 8, !tbaa !93
  %4 = getelementptr inbounds nuw %struct.imap_socket, ptr %3, i32 0, i32 1
  %5 = load ptr, ptr %4, align 8, !tbaa !99
  %6 = icmp ne ptr %5, null
  br i1 %6, label %7, label %15

7:                                                ; preds = %1
  %8 = load ptr, ptr %2, align 8, !tbaa !93
  %9 = getelementptr inbounds nuw %struct.imap_socket, ptr %8, i32 0, i32 1
  %10 = load ptr, ptr %9, align 8, !tbaa !99
  %11 = call i32 @SSL_shutdown(ptr noundef %10)
  %12 = load ptr, ptr %2, align 8, !tbaa !93
  %13 = getelementptr inbounds nuw %struct.imap_socket, ptr %12, i32 0, i32 1
  %14 = load ptr, ptr %13, align 8, !tbaa !99
  call void @SSL_free(ptr noundef %14)
  br label %15

15:                                               ; preds = %7, %1
  %16 = load ptr, ptr %2, align 8, !tbaa !93
  %17 = getelementptr inbounds nuw %struct.imap_socket, ptr %16, i32 0, i32 0
  %18 = getelementptr inbounds [2 x i32], ptr %17, i64 0, i64 0
  %19 = load i32, ptr %18, align 8, !tbaa !4
  %20 = call i32 @close(i32 noundef %19)
  %21 = load ptr, ptr %2, align 8, !tbaa !93
  %22 = getelementptr inbounds nuw %struct.imap_socket, ptr %21, i32 0, i32 0
  %23 = getelementptr inbounds [2 x i32], ptr %22, i64 0, i64 1
  %24 = load i32, ptr %23, align 4, !tbaa !4
  %25 = call i32 @close(i32 noundef %24)
  ret void
}

; Function Attrs: nounwind uwtable
define internal void @imap_close_server(ptr noundef %0) #0 {
  %2 = alloca ptr, align 8
  %3 = alloca ptr, align 8
  store ptr %0, ptr %2, align 8, !tbaa !43
  call void @llvm.lifetime.start.p0(i64 8, ptr %3) #11
  %4 = load ptr, ptr %2, align 8, !tbaa !43
  %5 = getelementptr inbounds nuw %struct.imap_store, ptr %4, i32 0, i32 3
  %6 = load ptr, ptr %5, align 8, !tbaa !58
  store ptr %6, ptr %3, align 8, !tbaa !57
  %7 = load ptr, ptr %3, align 8, !tbaa !57
  %8 = getelementptr inbounds nuw %struct.imap, ptr %7, i32 0, i32 8
  %9 = getelementptr inbounds nuw %struct.imap_buffer, ptr %8, i32 0, i32 0
  %10 = getelementptr inbounds nuw %struct.imap_socket, ptr %9, i32 0, i32 0
  %11 = getelementptr inbounds [2 x i32], ptr %10, i64 0, i64 0
  %12 = load i32, ptr %11, align 8, !tbaa !4
  %13 = icmp ne i32 %12, -1
  br i1 %13, label %14, label %20

14:                                               ; preds = %1
  %15 = load ptr, ptr %2, align 8, !tbaa !43
  %16 = call i32 (ptr, ptr, ptr, ...) @imap_exec(ptr noundef %15, ptr noundef null, ptr noundef @.str.132)
  %17 = load ptr, ptr %3, align 8, !tbaa !57
  %18 = getelementptr inbounds nuw %struct.imap, ptr %17, i32 0, i32 8
  %19 = getelementptr inbounds nuw %struct.imap_buffer, ptr %18, i32 0, i32 0
  call void @socket_shutdown(ptr noundef %19)
  br label %20

20:                                               ; preds = %14, %1
  %21 = load ptr, ptr %3, align 8, !tbaa !57
  call void @free(ptr noundef %21) #11
  call void @llvm.lifetime.end.p0(i64 8, ptr %3) #11
  ret void
}

; Function Attrs: nounwind uwtable
define internal void @imap_close_store(ptr noundef %0) #0 {
  %2 = alloca ptr, align 8
  store ptr %0, ptr %2, align 8, !tbaa !43
  %3 = load ptr, ptr %2, align 8, !tbaa !43
  call void @imap_close_server(ptr noundef %3)
  %4 = load ptr, ptr %2, align 8, !tbaa !43
  call void @free(ptr noundef %4) #11
  ret void
}