; Function Attrs: nounwind uwtable
define internal fastcc void @imap_close_store(ptr noundef %0) unnamed_addr #0 {
  %2 = getelementptr inbounds nuw i8, ptr %0, i64 24
  %3 = load ptr, ptr %2, align 8, !tbaa !50
  %4 = getelementptr inbounds nuw i8, ptr %3, i64 40
  %5 = load i32, ptr %4, align 8, !tbaa !19
  %.not.i = icmp eq i32 %5, -1
  br i1 %.not.i, label %imap_close_server.exit, label %6

6:                                                ; preds = %1
  %7 = tail call i32 (ptr, ptr, ptr, ...) @imap_exec(ptr noundef nonnull %0, ptr noundef null, ptr noundef nonnull @.str.132)
  %8 = getelementptr inbounds nuw i8, ptr %3, i64 48
  %9 = load ptr, ptr %8, align 8, !tbaa !86
  %.not.i.i = icmp eq ptr %9, null
  br i1 %.not.i.i, label %socket_shutdown.exit.i, label %10

10:                                               ; preds = %6
  %11 = tail call i32 @SSL_shutdown(ptr noundef nonnull %9) #22
  %12 = load ptr, ptr %8, align 8, !tbaa !86
  tail call void @SSL_free(ptr noundef %12) #22
  br label %socket_shutdown.exit.i

socket_shutdown.exit.i:                           ; preds = %10, %6
  %13 = load i32, ptr %4, align 8, !tbaa !19
  %14 = tail call i32 @close(i32 noundef %13) #22
  %15 = getelementptr inbounds nuw i8, ptr %3, i64 44
  %16 = load i32, ptr %15, align 4, !tbaa !19
  %17 = tail call i32 @close(i32 noundef %16) #22
  br label %imap_close_server.exit

imap_close_server.exit:                           ; preds = %1, %socket_shutdown.exit.i
  tail call void @free(ptr noundef nonnull %3) #22
  tail call void @free(ptr noundef nonnull %0) #22
  ret void
}